target datalayout = "e-m:e-p270:32:32-p271:32:32-p272:64:64-i64:64-i128:128-f80:128-n8:16:32:64-S128"
target triple = "x86_64-pc-linux-gnu"

%struct.ticker_geom_s = type { i32, i32 }
%struct.tsd_link_t = type { ptr, ptr }
%struct.peak_s = type { i64, i64 }
%struct.activity_callback_thunk_s = type { ptr, ptr }
%struct.anon = type { ptr, ptr }
%struct.cache_bin_array_descriptor_s = type { %struct.anon.0, ptr }
%struct.anon.0 = type { ptr, ptr }
%struct.rtree_ctx_s = type { [16 x %struct.rtree_ctx_cache_elm_s], [8 x %struct.rtree_ctx_cache_elm_s] }
%struct.rtree_ctx_cache_elm_s = type { i64, ptr }
%struct.atomic_u8_t = type { i8 }
%struct.tcache_s = type { ptr, [73 x %struct.cache_bin_s] }
%struct.cache_bin_s = type { ptr, %struct.cache_bin_stats_s, i16, i16, i16, %struct.cache_bin_info_s }
%struct.cache_bin_stats_s = type { i64 }
%struct.cache_bin_info_s = type { i16 }
%struct.witness_list_t = type { ptr }
%struct.tsd_s = type { i8, i8, i8, i64, i64, i64, i64, i64, i64, i64, i64, i64, i64, i64, i64, ptr, i64, i64, i64, ptr, ptr, %struct.ticker_geom_s, i8, %struct.tsd_binshards_s, %struct.tsd_link_t, i8, %struct.peak_s, %struct.activity_callback_thunk_s, %struct.tcache_slow_s, %struct.rtree_ctx_s, %struct.atomic_u8_t, i64, i64, i64, i64, %struct.tcache_s, %struct.witness_tsd_s }
%struct.tsd_binshards_s = type { [36 x i8] }
%struct.tcache_slow_s = type { %struct.anon, %struct.cache_bin_array_descriptor_s, ptr, i32, i32, [36 x i8], [36 x i8], [36 x i8], ptr, ptr }
%struct.witness_tsd_s = type { %struct.witness_list_t, i8 }

@duckdb_je_tsd_tsd = global i32 0, align 4
@.str.1 = private unnamed_addr constant [32 x i8] c"<jemalloc>: Error setting tsd.\0A\00", align 1
@duckdb_je_opt_abort = external global i8, align 1

; Function Attrs: alwaysinline nounwind uwtable
define internal ptr @tsd_reentrancy_levelp_get_unsafe(ptr noundef %0) #1 {
  %2 = alloca ptr, align 8
  store ptr %0, ptr %2, align 8, !tbaa !14
  %3 = load ptr, ptr %2, align 8, !tbaa !14
  %4 = getelementptr inbounds nuw %struct.tsd_s, ptr %3, i32 0, i32 1
  ret ptr %4
}

; Function Attrs: alwaysinline nounwind uwtable
define internal ptr @tsd_reentrancy_levelp_get(ptr noundef %0) #1 {
  %2 = alloca ptr, align 8
  %3 = alloca i8, align 1
  store ptr %0, ptr %2, align 8, !tbaa !14
  call void @llvm.lifetime.start.p0(i64 1, ptr %3) #10
  %4 = load ptr, ptr %2, align 8, !tbaa !14
  %5 = call zeroext i8 @tsd_state_get(ptr noundef %4)
  store i8 %5, ptr %3, align 1, !tbaa !40
  br label %6

6:                                                ; preds = %1
  br label %7

7:                                                ; preds = %6
  br label %8

8:                                                ; preds = %7
  %9 = load ptr, ptr %2, align 8, !tbaa !14
  %10 = call ptr @tsd_reentrancy_levelp_get_unsafe(ptr noundef %9)
  call void @llvm.lifetime.end.p0(i64 1, ptr %3) #10
  ret ptr %10
}

; Function Attrs: alwaysinline nounwind uwtable
define internal ptr @tsd_witness_tsdp_get_unsafe(ptr noundef %0) #1 {
  %2 = alloca ptr, align 8
  store ptr %0, ptr %2, align 8, !tbaa !14
  %3 = load ptr, ptr %2, align 8, !tbaa !14
  %4 = getelementptr inbounds nuw %struct.tsd_s, ptr %3, i32 0, i32 36
  ret ptr %4
}

; Function Attrs: alwaysinline nounwind uwtable
define internal void @tsd_set(ptr noundef %0) #1 {
  %2 = alloca ptr, align 8
  store ptr %0, ptr %2, align 8, !tbaa !14
  br label %3

3:                                                ; preds = %1
  br label %4

4:                                                ; preds = %3
  %5 = call align 8 ptr @llvm.threadlocal.address.p0(ptr align 8 @duckdb_je_tsd_tls)
  %6 = load ptr, ptr %2, align 8, !tbaa !14
  %7 = icmp ne ptr %5, %6
  %8 = xor i1 %7, true
  %9 = xor i1 %8, true
  %10 = zext i1 %9 to i32
  %11 = sext i32 %10 to i64
  %12 = call i64 @llvm.expect.i64(i64 %11, i64 1)
  %13 = icmp ne i64 %12, 0
  br i1 %13, label %14, label %17

14:                                               ; preds = %4
  %15 = call align 8 ptr @llvm.threadlocal.address.p0(ptr align 8 @duckdb_je_tsd_tls)
  %16 = load ptr, ptr %2, align 8, !tbaa !14
  call void @llvm.memcpy.p0.p0.i64(ptr align 8 %15, ptr align 8 %16, i64 2640, i1 false), !tbaa.struct !47
  br label %17

17:                                               ; preds = %14, %4
  %18 = load i32, ptr @duckdb_je_tsd_tsd, align 4, !tbaa !9
  %19 = call align 8 ptr @llvm.threadlocal.address.p0(ptr align 8 @duckdb_je_tsd_tls)
  %20 = call i32 @pthread_setspecific(i32 noundef %18, ptr noundef %19) #10
  %21 = icmp ne i32 %20, 0
  br i1 %21, label %22, label %27

22:                                               ; preds = %17
  call void @duckdb_je_malloc_write(ptr noundef @.str.1)
  %23 = load i8, ptr @duckdb_je_opt_abort, align 1, !tbaa !41, !range !42, !noundef !43
  %24 = trunc i8 %23 to i1
  br i1 %24, label %25, label %26

25:                                               ; preds = %22
  call void @abort() #11
  unreachable

26:                                               ; preds = %22
  br label %27

27:                                               ; preds = %26, %17
  ret void
}

; Function Attrs: nounwind uwtable
define internal void @tsd_do_data_cleanup(ptr noundef %0) #0 {
  %2 = alloca ptr, align 8
  store ptr %0, ptr %2, align 8, !tbaa !14
  %3 = load ptr, ptr %2, align 8, !tbaa !14
  call void @duckdb_je_prof_tdata_cleanup(ptr noundef %3)
  %4 = load ptr, ptr %2, align 8, !tbaa !14
  call void @duckdb_je_iarena_cleanup(ptr noundef %4)
  %5 = load ptr, ptr %2, align 8, !tbaa !14
  call void @duckdb_je_arena_cleanup(ptr noundef %5)
  %6 = load ptr, ptr %2, align 8, !tbaa !14
  call void @duckdb_je_tcache_cleanup(ptr noundef %6)
  %7 = load ptr, ptr %2, align 8, !tbaa !14
  %8 = call ptr @tsd_witness_tsdp_get_unsafe(ptr noundef %7)
  call void @duckdb_je_witnesses_cleanup(ptr noundef %8)
  %9 = load ptr, ptr %2, align 8, !tbaa !14
  %10 = call ptr @tsd_reentrancy_levelp_get(ptr noundef %9)
  store i8 1, ptr %10, align 1, !tbaa !40
  ret void
}

; Function Attrs: nounwind uwtable
define internal void @assert_tsd_data_cleanup_done(ptr noundef %0) #0 {
  %2 = alloca ptr, align 8
  store ptr %0, ptr %2, align 8, !tbaa !14
  br label %3

3:                                                ; preds = %1
  br label %4

4:                                                ; preds = %3
  br label %5

5:                                                ; preds = %4
  br label %6

6:                                                ; preds = %5
  br label %7

7:                                                ; preds = %6
  br label %8

8:                                                ; preds = %7
  br label %9

9:                                                ; preds = %8
  br label %10

10:                                               ; preds = %9
  br label %11

11:                                               ; preds = %10
  br label %12

12:                                               ; preds = %11
  br label %13

13:                                               ; preds = %12
  br label %14

14:                                               ; preds = %13
  ret void
}

; Function Attrs: alwaysinline nounwind uwtable
define internal zeroext i8 @tsd_state_get(ptr noundef %0) #1 {
  %2 = alloca ptr, align 8
  store ptr %0, ptr %2, align 8, !tbaa !14
  %3 = load ptr, ptr %2, align 8, !tbaa !14
  %4 = getelementptr inbounds nuw %struct.tsd_s, ptr %3, i32 0, i32 30
  %5 = load i8, ptr %4, align 8, !tbaa !40
  ret i8 %5
}

; Function Attrs: nounwind uwtable
define void @duckdb_je_tsd_cleanup(ptr noundef %0) #0 {
  %2 = alloca ptr, align 8
  %3 = alloca ptr, align 8
  store ptr %0, ptr %2, align 8, !tbaa !8
  call void @llvm.lifetime.start.p0(i64 8, ptr %3) #10
  %4 = load ptr, ptr %2, align 8, !tbaa !8
  store ptr %4, ptr %3, align 8, !tbaa !14
  %5 = load ptr, ptr %3, align 8, !tbaa !14
  %6 = call zeroext i8 @tsd_state_get(ptr noundef %5)
  %7 = zext i8 %6 to i32
  switch i32 %7, label %14 [
    i32 6, label %18
    i32 3, label %8
    i32 5, label %8
    i32 0, label %10
    i32 1, label %10
    i32 4, label %18
  ]

8:                                                ; preds = %1, %1
  %9 = load ptr, ptr %3, align 8, !tbaa !14
  call void @assert_tsd_data_cleanup_done(ptr noundef %9)
  br label %10

10:                                               ; preds = %1, %1, %8
  %11 = load ptr, ptr %3, align 8, !tbaa !14
  call void @tsd_do_data_cleanup(ptr noundef %11)
  %12 = load ptr, ptr %3, align 8, !tbaa !14
  call void @duckdb_je_tsd_state_set(ptr noundef %12, i8 noundef zeroext 4)
  %13 = load ptr, ptr %3, align 8, !tbaa !14
  call void @tsd_set(ptr noundef %13)
  br label %18

14:                                               ; preds = %1
  br label %15

15:                                               ; preds = %14
  unreachable

16:                                               ; No predecessors!
  br label %17

17:                                               ; preds = %16
  br label %18

18:                                               ; preds = %17, %1, %10, %1
  call void @llvm.lifetime.end.p0(i64 8, ptr %3) #10
  ret void
}